target datalayout = "e-m:e-p270:32:32-p271:32:32-p272:64:64-i64:64-i128:128-f80:128-n8:16:32:64-S128"
target triple = "x86_64-pc-linux-gnu"

%struct.date_mode = type { i32, i32, ptr }
%struct.string_list = type { ptr, i64, i64, i8, ptr }
%struct.shortlog = type { %struct.string_list, i32, i32, i32, i32, i32, i32, i32, i32, %struct.date_mode, i32, %struct.string_list, %struct.string_list, i32, %struct.string_list, ptr }
%struct.option = type { i32, i32, ptr, ptr, ptr, ptr, i32, ptr, i64, ptr, i64, ptr }

@.str.6 = private unnamed_addr constant [10 x i8] c"committer\00", align 1
@.str.30 = private unnamed_addr constant [7 x i8] c"author\00", align 1
@.str.31 = private unnamed_addr constant [9 x i8] c"trailer:\00", align 1
@.str.32 = private unnamed_addr constant [8 x i8] c"format:\00", align 1
@.str.33 = private unnamed_addr constant [23 x i8] c"unknown group type: %s\00", align 1
@.str.36 = private unnamed_addr constant [1 x i8] zeroinitializer, align 1
@git_gettext_enabled = external global i32, align 4

; Function Attrs: inlinehint nounwind uwtable
define internal i32 @const_error() #5 {
  ret i32 -1
}

; Function Attrs: inlinehint nounwind uwtable
define internal ptr @_(ptr noundef %0) #5 {
  %2 = alloca ptr, align 8
  %3 = alloca ptr, align 8
  store ptr %0, ptr %3, align 8, !tbaa !30
  %4 = load ptr, ptr %3, align 8, !tbaa !30
  %5 = load i8, ptr %4, align 1, !tbaa !148
  %6 = icmp ne i8 %5, 0
  br i1 %6, label %8, label %7

7:                                                ; preds = %1
  store ptr @.str.36, ptr %2, align 8
  br label %16

8:                                                ; preds = %1
  %9 = load i32, ptr @git_gettext_enabled, align 4, !tbaa !29
  %10 = icmp ne i32 %9, 0
  br i1 %10, label %13, label %11

11:                                               ; preds = %8
  %12 = load ptr, ptr %3, align 8, !tbaa !30
  store ptr %12, ptr %2, align 8
  br label %16

13:                                               ; preds = %8
  %14 = load ptr, ptr %3, align 8, !tbaa !30
  %15 = call ptr @dcgettext(ptr noundef null, ptr noundef %14, i32 noundef 5) #10
  store ptr %15, ptr %2, align 8
  br label %16

16:                                               ; preds = %13, %11, %7
  %17 = load ptr, ptr %2, align 8
  ret ptr %17
}

; Function Attrs: inlinehint nounwind uwtable
define internal zeroext i1 @skip_prefix(ptr noundef %0, ptr noundef %1, ptr noundef %2) #5 {
  %4 = alloca i1, align 1
  %5 = alloca ptr, align 8
  %6 = alloca ptr, align 8
  %7 = alloca ptr, align 8
  store ptr %0, ptr %5, align 8, !tbaa !30
  store ptr %1, ptr %6, align 8, !tbaa !30
  store ptr %2, ptr %7, align 8, !tbaa !63
  br label %8

8:                                                ; preds = %16, %3
  %9 = load ptr, ptr %6, align 8, !tbaa !30
  %10 = load i8, ptr %9, align 1, !tbaa !148
  %11 = icmp ne i8 %10, 0
  br i1 %11, label %15, label %12

12:                                               ; preds = %8
  %13 = load ptr, ptr %5, align 8, !tbaa !30
  %14 = load ptr, ptr %7, align 8, !tbaa !63
  store ptr %13, ptr %14, align 8, !tbaa !30
  store i1 true, ptr %4, align 1
  br label %27

15:                                               ; preds = %8
  br label %16

16:                                               ; preds = %15
  %17 = load ptr, ptr %5, align 8, !tbaa !30
  %18 = getelementptr inbounds nuw i8, ptr %17, i32 1
  store ptr %18, ptr %5, align 8, !tbaa !30
  %19 = load i8, ptr %17, align 1, !tbaa !148
  %20 = sext i8 %19 to i32
  %21 = load ptr, ptr %6, align 8, !tbaa !30
  %22 = getelementptr inbounds nuw i8, ptr %21, i32 1
  store ptr %22, ptr %6, align 8, !tbaa !30
  %23 = load i8, ptr %21, align 1, !tbaa !148
  %24 = sext i8 %23 to i32
  %25 = icmp eq i32 %20, %24
  br i1 %25, label %8, label %26, !llvm.loop !173

26:                                               ; preds = %16
  store i1 false, ptr %4, align 1
  br label %27

27:                                               ; preds = %26, %12
  %28 = load i1, ptr %4, align 1
  ret i1 %28
}

; Function Attrs: nounwind uwtable
define internal i32 @parse_group_option(ptr noundef %0, ptr noundef %1, i32 noundef %2) #0 {
  %4 = alloca i32, align 4
  %5 = alloca ptr, align 8
  %6 = alloca ptr, align 8
  %7 = alloca i32, align 4
  %8 = alloca ptr, align 8
  %9 = alloca ptr, align 8
  %10 = alloca i32, align 4
  store ptr %0, ptr %5, align 8, !tbaa !144
  store ptr %1, ptr %6, align 8, !tbaa !30
  store i32 %2, ptr %7, align 4, !tbaa !29
  call void @llvm.lifetime.start.p0(i64 8, ptr %8) #10
  %11 = load ptr, ptr %5, align 8, !tbaa !144
  %12 = getelementptr inbounds nuw %struct.option, ptr %11, i32 0, i32 3
  %13 = load ptr, ptr %12, align 8, !tbaa !73
  store ptr %13, ptr %8, align 8, !tbaa !4
  call void @llvm.lifetime.start.p0(i64 8, ptr %9) #10
  %14 = load i32, ptr %7, align 4, !tbaa !29
  %15 = icmp ne i32 %14, 0
  br i1 %15, label %16, label %23

16:                                               ; preds = %3
  %17 = load ptr, ptr %8, align 8, !tbaa !4
  %18 = getelementptr inbounds nuw %struct.shortlog, ptr %17, i32 0, i32 10
  store i32 0, ptr %18, align 8, !tbaa !61
  %19 = load ptr, ptr %8, align 8, !tbaa !4
  %20 = getelementptr inbounds nuw %struct.shortlog, ptr %19, i32 0, i32 11
  call void @string_list_clear(ptr noundef %20, i32 noundef 0)
  %21 = load ptr, ptr %8, align 8, !tbaa !4
  %22 = getelementptr inbounds nuw %struct.shortlog, ptr %21, i32 0, i32 12
  call void @string_list_clear(ptr noundef %22, i32 noundef 0)
  br label %88

23:                                               ; preds = %3
  %24 = load ptr, ptr %6, align 8, !tbaa !30
  %25 = call i32 @strcasecmp(ptr noundef %24, ptr noundef @.str.30) #11
  %26 = icmp ne i32 %25, 0
  br i1 %26, label %32, label %27

27:                                               ; preds = %23
  %28 = load ptr, ptr %8, align 8, !tbaa !4
  %29 = getelementptr inbounds nuw %struct.shortlog, ptr %28, i32 0, i32 10
  %30 = load i32, ptr %29, align 8, !tbaa !61
  %31 = or i32 %30, 1
  store i32 %31, ptr %29, align 8, !tbaa !61
  br label %87

32:                                               ; preds = %23
  %33 = load ptr, ptr %6, align 8, !tbaa !30
  %34 = call i32 @strcasecmp(ptr noundef %33, ptr noundef @.str.6) #11
  %35 = icmp ne i32 %34, 0
  br i1 %35, label %41, label %36

36:                                               ; preds = %32
  %37 = load ptr, ptr %8, align 8, !tbaa !4
  %38 = getelementptr inbounds nuw %struct.shortlog, ptr %37, i32 0, i32 10
  %39 = load i32, ptr %38, align 8, !tbaa !61
  %40 = or i32 %39, 2
  store i32 %40, ptr %38, align 8, !tbaa !61
  br label %86

41:                                               ; preds = %32
  %42 = load ptr, ptr %6, align 8, !tbaa !30
  %43 = call zeroext i1 @skip_prefix(ptr noundef %42, ptr noundef @.str.31, ptr noundef %9)
  br i1 %43, label %44, label %53

44:                                               ; preds = %41
  %45 = load ptr, ptr %8, align 8, !tbaa !4
  %46 = getelementptr inbounds nuw %struct.shortlog, ptr %45, i32 0, i32 10
  %47 = load i32, ptr %46, align 8, !tbaa !61
  %48 = or i32 %47, 4
  store i32 %48, ptr %46, align 8, !tbaa !61
  %49 = load ptr, ptr %8, align 8, !tbaa !4
  %50 = getelementptr inbounds nuw %struct.shortlog, ptr %49, i32 0, i32 11
  %51 = load ptr, ptr %9, align 8, !tbaa !30
  %52 = call ptr @string_list_append(ptr noundef %50, ptr noundef %51)
  br label %85

53:                                               ; preds = %41
  %54 = load ptr, ptr %6, align 8, !tbaa !30
  %55 = call zeroext i1 @skip_prefix(ptr noundef %54, ptr noundef @.str.32, ptr noundef %9)
  br i1 %55, label %56, label %65

56:                                               ; preds = %53
  %57 = load ptr, ptr %8, align 8, !tbaa !4
  %58 = getelementptr inbounds nuw %struct.shortlog, ptr %57, i32 0, i32 10
  %59 = load i32, ptr %58, align 8, !tbaa !61
  %60 = or i32 %59, 8
  store i32 %60, ptr %58, align 8, !tbaa !61
  %61 = load ptr, ptr %8, align 8, !tbaa !4
  %62 = getelementptr inbounds nuw %struct.shortlog, ptr %61, i32 0, i32 12
  %63 = load ptr, ptr %9, align 8, !tbaa !30
  %64 = call ptr @string_list_append(ptr noundef %62, ptr noundef %63)
  br label %84

65:                                               ; preds = %53
  %66 = load ptr, ptr %6, align 8, !tbaa !30
  %67 = call ptr @strchr(ptr noundef %66, i32 noundef 37) #11
  %68 = icmp ne ptr %67, null
  br i1 %68, label %69, label %78

69:                                               ; preds = %65
  %70 = load ptr, ptr %8, align 8, !tbaa !4
  %71 = getelementptr inbounds nuw %struct.shortlog, ptr %70, i32 0, i32 10
  %72 = load i32, ptr %71, align 8, !tbaa !61
  %73 = or i32 %72, 8
  store i32 %73, ptr %71, align 8, !tbaa !61
  %74 = load ptr, ptr %8, align 8, !tbaa !4
  %75 = getelementptr inbounds nuw %struct.shortlog, ptr %74, i32 0, i32 12
  %76 = load ptr, ptr %6, align 8, !tbaa !30
  %77 = call ptr @string_list_append(ptr noundef %75, ptr noundef %76)
  br label %83

78:                                               ; preds = %65
  %79 = call ptr @_(ptr noundef @.str.33)
  %80 = load ptr, ptr %6, align 8, !tbaa !30
  %81 = call i32 (ptr, ...) @error(ptr noundef %79, ptr noundef %80)
  %82 = call i32 @const_error()
  store i32 %82, ptr %4, align 4
  store i32 1, ptr %10, align 4
  br label %89

83:                                               ; preds = %69
  br label %84

84:                                               ; preds = %83, %56
  br label %85

85:                                               ; preds = %84, %44
  br label %86

86:                                               ; preds = %85, %36
  br label %87

87:                                               ; preds = %86, %27
  br label %88

88:                                               ; preds = %87, %16
  store i32 0, ptr %4, align 4
  store i32 1, ptr %10, align 4
  br label %89

89:                                               ; preds = %88, %78
  call void @llvm.lifetime.end.p0(i64 8, ptr %9) #10
  call void @llvm.lifetime.end.p0(i64 8, ptr %8) #10
  %90 = load i32, ptr %4, align 4
  ret i32 %90
}