; Function Attrs: nounwind uwtable
define internal range(i32 -1, 1) i32 @parse_group_option(ptr noundef readonly captures(none) %0, ptr noundef %1, i32 noundef %2) #0 {
  %4 = getelementptr inbounds nuw i8, ptr %0, i64 16
  %5 = load ptr, ptr %4, align 8, !tbaa !62
  %.not = icmp eq i32 %2, 0
  br i1 %.not, label %10, label %6

6:                                                ; preds = %3
  %7 = getelementptr inbounds nuw i8, ptr %5, i64 88
  store i32 0, ptr %7, align 8, !tbaa !48
  %8 = getelementptr inbounds nuw i8, ptr %5, i64 96
  tail call void @string_list_clear(ptr noundef nonnull %8, i32 noundef 0) #17
  %9 = getelementptr inbounds nuw i8, ptr %5, i64 136
  tail call void @string_list_clear(ptr noundef nonnull %9, i32 noundef 0) #17
  br label %56

10:                                               ; preds = %3
  %11 = tail call i32 @strcasecmp(ptr noundef %1, ptr noundef nonnull @.str.30) #18
  %.not20 = icmp eq i32 %11, 0
  br i1 %.not20, label %12, label %16

12:                                               ; preds = %10
  %13 = getelementptr inbounds nuw i8, ptr %5, i64 88
  %14 = load i32, ptr %13, align 8, !tbaa !48
  %15 = or i32 %14, 1
  store i32 %15, ptr %13, align 8, !tbaa !48
  br label %56

16:                                               ; preds = %10
  %17 = tail call i32 @strcasecmp(ptr noundef %1, ptr noundef nonnull @.str.6) #18
  %.not21 = icmp eq i32 %17, 0
  br i1 %.not21, label %18, label %.preheader.preheader

.preheader.preheader:                             ; preds = %16
  %scevgep = getelementptr i8, ptr %1, i64 8
  br label %.preheader

18:                                               ; preds = %16
  %19 = getelementptr inbounds nuw i8, ptr %5, i64 88
  %20 = load i32, ptr %19, align 8, !tbaa !48
  %21 = or i32 %20, 2
  store i32 %21, ptr %19, align 8, !tbaa !48
  br label %56

.preheader:                                       ; preds = %.preheader.preheader, %22
  %.07.i = phi ptr [ %24, %22 ], [ %1, %.preheader.preheader ]
  %.06.i.idx = phi i64 [ %.06.i.add, %22 ], [ 0, %.preheader.preheader ]
  %exitcond = icmp eq i64 %.06.i.idx, 8
  br i1 %exitcond, label %27, label %22

22:                                               ; preds = %.preheader
  %.06.i.ptr = getelementptr inbounds nuw i8, ptr @.str.31, i64 %.06.i.idx
  %23 = load i8, ptr %.06.i.ptr, align 1, !tbaa !43
  %24 = getelementptr inbounds nuw i8, ptr %.07.i, i64 1
  %25 = load i8, ptr %.07.i, align 1, !tbaa !43
  %.06.i.add = add nuw nsw i64 %.06.i.idx, 1
  %26 = icmp eq i8 %25, %23
  br i1 %26, label %.preheader, label %skip_prefix.exit.preheader, !llvm.loop !131

skip_prefix.exit.preheader:                       ; preds = %22
  %scevgep37 = getelementptr i8, ptr %1, i64 7
  br label %skip_prefix.exit

27:                                               ; preds = %.preheader
  %28 = getelementptr inbounds nuw i8, ptr %5, i64 88
  %29 = load i32, ptr %28, align 8, !tbaa !48
  %30 = or i32 %29, 4
  store i32 %30, ptr %28, align 8, !tbaa !48
  %31 = getelementptr inbounds nuw i8, ptr %5, i64 96
  %32 = tail call ptr @string_list_append(ptr noundef nonnull %31, ptr noundef %scevgep) #17
  br label %56

skip_prefix.exit:                                 ; preds = %skip_prefix.exit.preheader, %33
  %.07.i23 = phi ptr [ %35, %33 ], [ %1, %skip_prefix.exit.preheader ]
  %.06.i24.idx = phi i64 [ %.06.i24.add, %33 ], [ 0, %skip_prefix.exit.preheader ]
  %exitcond38 = icmp eq i64 %.06.i24.idx, 7
  br i1 %exitcond38, label %38, label %33

33:                                               ; preds = %skip_prefix.exit
  %.06.i24.ptr = getelementptr inbounds nuw i8, ptr @.str.32, i64 %.06.i24.idx
  %34 = load i8, ptr %.06.i24.ptr, align 1, !tbaa !43
  %35 = getelementptr inbounds nuw i8, ptr %.07.i23, i64 1
  %36 = load i8, ptr %.07.i23, align 1, !tbaa !43
  %.06.i24.add = add nuw nsw i64 %.06.i24.idx, 1
  %37 = icmp eq i8 %36, %34
  br i1 %37, label %skip_prefix.exit, label %skip_prefix.exit26, !llvm.loop !131

38:                                               ; preds = %skip_prefix.exit
  %39 = getelementptr inbounds nuw i8, ptr %5, i64 88
  %40 = load i32, ptr %39, align 8, !tbaa !48
  %41 = or i32 %40, 8
  store i32 %41, ptr %39, align 8, !tbaa !48
  %42 = getelementptr inbounds nuw i8, ptr %5, i64 136
  %43 = tail call ptr @string_list_append(ptr noundef nonnull %42, ptr noundef %scevgep37) #17
  br label %56

skip_prefix.exit26:                               ; preds = %33
  %44 = tail call ptr @strchr(ptr noundef nonnull dereferenceable(1) %1, i32 noundef 37) #18
  %.not22 = icmp eq ptr %44, null
  br i1 %.not22, label %51, label %45

45:                                               ; preds = %skip_prefix.exit26
  %46 = getelementptr inbounds nuw i8, ptr %5, i64 88
  %47 = load i32, ptr %46, align 8, !tbaa !48
  %48 = or i32 %47, 8
  store i32 %48, ptr %46, align 8, !tbaa !48
  %49 = getelementptr inbounds nuw i8, ptr %5, i64 136
  %50 = tail call ptr @string_list_append(ptr noundef nonnull %49, ptr noundef nonnull %1) #17
  br label %56

51:                                               ; preds = %skip_prefix.exit26
  %52 = load i32, ptr @git_gettext_enabled, align 4, !tbaa !25
  %.not4.i = icmp eq i32 %52, 0
  br i1 %.not4.i, label %_.exit, label %53

53:                                               ; preds = %51
  %54 = tail call ptr @dcgettext(ptr noundef null, ptr noundef nonnull @.str.33, i32 noundef 5) #17
  br label %_.exit

_.exit:                                           ; preds = %51, %53
  %.0.i = phi ptr [ %54, %53 ], [ @.str.33, %51 ]
  %55 = tail call i32 (ptr, ...) @error(ptr noundef %.0.i, ptr noundef nonnull %1) #17
  br label %56

56:                                               ; preds = %6, %18, %38, %45, %27, %12, %_.exit
  %.0 = phi i32 [ -1, %_.exit ], [ 0, %12 ], [ 0, %27 ], [ 0, %45 ], [ 0, %38 ], [ 0, %18 ], [ 0, %6 ]
  ret i32 %.0
}